target datalayout = "e-m:e-p270:32:32-p271:32:32-p272:64:64-i64:64-i128:128-f80:128-n8:16:32:64-S128"
target triple = "x86_64-pc-linux-gnu"

%"class.llvm::StringRef" = type { ptr, i64 }
%"class.llvm::SmallVectorBase" = type { ptr, i32, i32 }
%"class.llvm::SmallPtrSetImplBase.base" = type <{ ptr, ptr, i32, i32, i32 }>
%"class.llvm::SmallVector.15" = type { %"class.llvm::SmallVectorImpl.16" }
%"class.llvm::SmallVectorImpl.16" = type { %"class.llvm::SmallVectorTemplateBase.17" }
%"class.llvm::SmallVectorTemplateBase.17" = type { %"class.llvm::SmallVectorTemplateCommon.18" }
%"class.llvm::SmallVectorTemplateCommon.18" = type { %"class.llvm::SmallVectorBase" }
%"struct.std::_Rb_tree_header" = type { %"struct.std::_Rb_tree_node_base", i64 }
%"struct.std::_Rb_tree_node_base" = type { i32, ptr, ptr, ptr }
%"class.llvm::DenseMap.148" = type <{ ptr, i32, i32, i32, [4 x i8] }>
%"class.llvm::SmallVectorImpl.181" = type { %"class.llvm::SmallVectorTemplateBase.182" }
%"class.llvm::SmallVectorTemplateBase.182" = type { %"class.llvm::SmallVectorTemplateCommon.183" }
%"class.llvm::SmallVectorTemplateCommon.183" = type { %"class.llvm::SmallVectorBase" }
%"class.llvm::SmallVectorImpl.214" = type { %"class.llvm::SmallVectorTemplateBase.215" }
%"class.llvm::SmallVectorTemplateBase.215" = type { %"class.llvm::SmallVectorTemplateCommon.216" }
%"class.llvm::SmallVectorTemplateCommon.216" = type { %"class.llvm::SmallVectorBase" }
%"class.LiveDebugValues::InstrRefBasedLDV" = type { %"class.llvm::SharedLiveDebugValues::LDVImpl", ptr, ptr, ptr, ptr, ptr, ptr, %"class.llvm::BitVector", %"class.llvm::LexicalScopes", ptr, ptr, ptr, i32, i32, ptr, ptr, %"class.llvm::SmallPtrSet.253", %"class.llvm::SmallVector.256", %"class.llvm::DenseMap.95", %"class.llvm::DenseMap.148", %"class.std::map.261", %"class.llvm::SmallVector.267", %"class.llvm::DenseMap.272", %"class.llvm::DenseMap.275", %"class.llvm::DenseMap.278", %"class.LiveDebugValues::DbgOpIDMap", %"class.LiveDebugValues::DebugVariableMap", i8, %"class.llvm::StringRef" }
%"class.llvm::SharedLiveDebugValues::LDVImpl" = type { ptr }
%"class.llvm::BitVector" = type <{ %"class.llvm::SmallVector.220", i32, [4 x i8] }>
%"class.llvm::SmallVector.220" = type { %"class.llvm::SmallVectorImpl.214", %"struct.llvm::SmallVectorStorage.221" }
%"struct.llvm::SmallVectorStorage.221" = type { [48 x i8] }
%"class.llvm::LexicalScopes" = type { ptr, %"class.std::unordered_map", %"class.std::unordered_map.227", %"class.std::unordered_map", %"class.llvm::SmallVector.245", ptr, %"class.llvm::DenseMap.250" }
%"class.std::unordered_map.227" = type { %"class.std::_Hashtable.228" }
%"class.std::_Hashtable.228" = type { ptr, i64, %"struct.std::__detail::_Hash_node_base", i64, %"struct.std::__detail::_Prime_rehash_policy", ptr }
%"struct.std::__detail::_Hash_node_base" = type { ptr }
%"struct.std::__detail::_Prime_rehash_policy" = type { float, i64 }
%"class.std::unordered_map" = type { %"class.std::_Hashtable" }
%"class.std::_Hashtable" = type { ptr, i64, %"struct.std::__detail::_Hash_node_base", i64, %"struct.std::__detail::_Prime_rehash_policy", ptr }
%"class.llvm::SmallVector.245" = type { %"class.llvm::SmallVectorImpl.246", %"struct.llvm::SmallVectorStorage.249" }
%"class.llvm::SmallVectorImpl.246" = type { %"class.llvm::SmallVectorTemplateBase.247" }
%"class.llvm::SmallVectorTemplateBase.247" = type { %"class.llvm::SmallVectorTemplateCommon.248" }
%"class.llvm::SmallVectorTemplateCommon.248" = type { %"class.llvm::SmallVectorBase" }
%"struct.llvm::SmallVectorStorage.249" = type { [32 x i8] }
%"class.llvm::DenseMap.250" = type <{ ptr, i32, i32, i32, [4 x i8] }>
%"class.llvm::SmallPtrSet.253" = type { %"class.llvm::SmallPtrSetImpl.base.255", [16 x ptr] }
%"class.llvm::SmallPtrSetImpl.base.255" = type { %"class.llvm::SmallPtrSetImplBase.base" }
%"class.llvm::SmallVector.256" = type { %"class.llvm::SmallVectorImpl.257", %"struct.llvm::SmallVectorStorage.260" }
%"class.llvm::SmallVectorImpl.257" = type { %"class.llvm::SmallVectorTemplateBase.258" }
%"class.llvm::SmallVectorTemplateBase.258" = type { %"class.llvm::SmallVectorTemplateCommon.259" }
%"class.llvm::SmallVectorTemplateCommon.259" = type { %"class.llvm::SmallVectorBase" }
%"struct.llvm::SmallVectorStorage.260" = type { [48 x i8] }
%"class.llvm::DenseMap.95" = type <{ ptr, i32, i32, i32, [4 x i8] }>
%"class.std::map.261" = type { %"class.std::_Rb_tree.262" }
%"class.std::_Rb_tree.262" = type { %"struct.std::_Rb_tree<unsigned long, std::pair<const unsigned long, std::pair<const llvm::MachineInstr *, unsigned int>>, std::_Select1st<std::pair<const unsigned long, std::pair<const llvm::MachineInstr *, unsigned int>>>, std::less<unsigned long>>::_Rb_tree_impl" }
%"struct.std::_Rb_tree<unsigned long, std::pair<const unsigned long, std::pair<const llvm::MachineInstr *, unsigned int>>, std::_Select1st<std::pair<const unsigned long, std::pair<const llvm::MachineInstr *, unsigned int>>>, std::less<unsigned long>>::_Rb_tree_impl" = type { [8 x i8], %"struct.std::_Rb_tree_header" }
%"class.llvm::SmallVector.267" = type { %"class.llvm::SmallVectorImpl.268", %"struct.llvm::SmallVectorStorage.271" }
%"class.llvm::SmallVectorImpl.268" = type { %"class.llvm::SmallVectorTemplateBase.269" }
%"class.llvm::SmallVectorTemplateBase.269" = type { %"class.llvm::SmallVectorTemplateCommon.270" }
%"class.llvm::SmallVectorTemplateCommon.270" = type { %"class.llvm::SmallVectorBase" }
%"struct.llvm::SmallVectorStorage.271" = type { [1280 x i8] }
%"class.llvm::DenseMap.272" = type <{ ptr, i32, i32, i32, [4 x i8] }>
%"class.llvm::DenseMap.275" = type <{ ptr, i32, i32, i32, [4 x i8] }>
%"class.llvm::DenseMap.278" = type <{ ptr, i32, i32, i32, [4 x i8] }>
%"class.LiveDebugValues::DbgOpIDMap" = type { %"class.llvm::SmallVector.15", %"class.llvm::SmallVector.281", %"class.llvm::DenseMap.283", %"class.llvm::DenseMap.286" }
%"class.llvm::SmallVector.281" = type { %"class.llvm::SmallVectorImpl.181" }
%"class.llvm::DenseMap.283" = type <{ ptr, i32, i32, i32, [4 x i8] }>
%"class.llvm::DenseMap.286" = type <{ ptr, i32, i32, i32, [4 x i8] }>
%"class.LiveDebugValues::DebugVariableMap" = type { %"class.llvm::DenseMap.289", %"class.llvm::SmallVector.292" }
%"class.llvm::DenseMap.289" = type <{ ptr, i32, i32, i32, [4 x i8] }>
%"class.llvm::SmallVector.292" = type { %"class.llvm::SmallVectorImpl.293", %"struct.llvm::SmallVectorStorage.296" }
%"class.llvm::SmallVectorImpl.293" = type { %"class.llvm::SmallVectorTemplateBase.294" }
%"class.llvm::SmallVectorTemplateBase.294" = type { %"class.llvm::SmallVectorTemplateCommon.295" }
%"class.llvm::SmallVectorTemplateCommon.295" = type { %"class.llvm::SmallVectorBase" }
%"struct.llvm::SmallVectorStorage.296" = type { [48 x i8] }
%"class.llvm::IDFCalculatorBase" = type { ptr, i8, i8, ptr, ptr }

; Function Attrs: mustprogress nounwind uwtable
define linkonce_odr hidden void @_ZN4llvm17IDFCalculatorBaseINS_17MachineBasicBlockELb0EE17setDefiningBlocksERKNS_15SmallPtrSetImplIPS1_EE(ptr noundef nonnull align 8 dereferenceable(32) %0, ptr noundef nonnull align 8 dereferenceable(28) %1) #1 comdat align 2 {
  %3 = alloca ptr, align 8
  %4 = alloca ptr, align 8
  store ptr %0, ptr %3, align 8
  store ptr %1, ptr %4, align 8
  %5 = load ptr, ptr %3, align 8
  %6 = load ptr, ptr %4, align 8
  %7 = getelementptr inbounds nuw %"class.llvm::IDFCalculatorBase", ptr %5, i32 0, i32 4
  store ptr %6, ptr %7, align 8
  ret void
}

; Function Attrs: mustprogress nounwind uwtable
define linkonce_odr hidden void @_ZN4llvm17IDFCalculatorBaseINS_17MachineBasicBlockELb0EE15setLiveInBlocksERKNS_15SmallPtrSetImplIPS1_EE(ptr noundef nonnull align 8 dereferenceable(32) %0, ptr noundef nonnull align 8 dereferenceable(28) %1) #1 comdat align 2 {
  %3 = alloca ptr, align 8
  %4 = alloca ptr, align 8
  store ptr %0, ptr %3, align 8
  store ptr %1, ptr %4, align 8
  %5 = load ptr, ptr %3, align 8
  %6 = load ptr, ptr %4, align 8
  %7 = getelementptr inbounds nuw %"class.llvm::IDFCalculatorBase", ptr %5, i32 0, i32 3
  store ptr %6, ptr %7, align 8
  %8 = getelementptr inbounds nuw %"class.llvm::IDFCalculatorBase", ptr %5, i32 0, i32 2
  store i8 1, ptr %8, align 1
  ret void
}

; Function Attrs: mustprogress nounwind uwtable
define linkonce_odr hidden void @_ZN4llvm17IDFCalculatorBaseINS_17MachineBasicBlockELb0EEC2ERNS_17DominatorTreeBaseIS1_Lb0EEE(ptr noundef nonnull align 8 dereferenceable(32) %0, ptr noundef nonnull align 8 dereferenceable(124) %1) unnamed_addr #1 comdat align 2 {
  %3 = alloca ptr, align 8
  %4 = alloca ptr, align 8
  store ptr %0, ptr %3, align 8
  store ptr %1, ptr %4, align 8
  %5 = load ptr, ptr %3, align 8
  %6 = getelementptr inbounds nuw %"class.llvm::IDFCalculatorBase", ptr %5, i32 0, i32 0
  %7 = load ptr, ptr %4, align 8
  store ptr %7, ptr %6, align 8
  %8 = getelementptr inbounds nuw %"class.llvm::IDFCalculatorBase", ptr %5, i32 0, i32 2
  store i8 0, ptr %8, align 1
  ret void
}

; Function Attrs: mustprogress nounwind uwtable
define linkonce_odr hidden noundef nonnull align 8 dereferenceable(1200) ptr @_ZN4llvm20MachineDominatorTree7getBaseEv(ptr noundef nonnull align 8 dereferenceable(1200) %0) #1 comdat align 2 {
  %2 = alloca ptr, align 8
  store ptr %0, ptr %2, align 8
  %3 = load ptr, ptr %2, align 8
  call void @_ZNK4llvm20MachineDominatorTree23applySplitCriticalEdgesEv(ptr noundef nonnull align 8 dereferenceable(1200) %3)
  ret ptr %3
}

; Function Attrs: mustprogress nounwind uwtable
define dso_local void @_ZN15LiveDebugValues16InstrRefBasedLDV17BlockPHIPlacementERKN4llvm15SmallPtrSetImplIPNS1_17MachineBasicBlockEEES7_RNS1_15SmallVectorImplIS4_EE(ptr noundef nonnull align 8 dereferenceable(2312) %0, ptr noundef nonnull align 8 dereferenceable(28) %1, ptr noundef nonnull align 8 dereferenceable(28) %2, ptr noundef nonnull align 8 dereferenceable(16) %3) #1 align 2 {
  %5 = alloca ptr, align 8
  %6 = alloca ptr, align 8
  %7 = alloca ptr, align 8
  %8 = alloca ptr, align 8
  %9 = alloca %"class.llvm::IDFCalculatorBase", align 8
  store ptr %0, ptr %5, align 8
  store ptr %1, ptr %6, align 8
  store ptr %2, ptr %7, align 8
  store ptr %3, ptr %8, align 8
  %10 = load ptr, ptr %5, align 8
  %11 = getelementptr inbounds nuw %"class.LiveDebugValues::InstrRefBasedLDV", ptr %10, i32 0, i32 1
  %12 = load ptr, ptr %11, align 8
  %13 = call noundef nonnull align 8 dereferenceable(1200) ptr @_ZN4llvm20MachineDominatorTree7getBaseEv(ptr noundef nonnull align 8 dereferenceable(1200) %12)
  call void @_ZN4llvm17IDFCalculatorBaseINS_17MachineBasicBlockELb0EEC2ERNS_17DominatorTreeBaseIS1_Lb0EEE(ptr noundef nonnull align 8 dereferenceable(32) %9, ptr noundef nonnull align 8 dereferenceable(124) %13)
  %14 = load ptr, ptr %6, align 8
  call void @_ZN4llvm17IDFCalculatorBaseINS_17MachineBasicBlockELb0EE15setLiveInBlocksERKNS_15SmallPtrSetImplIPS1_EE(ptr noundef nonnull align 8 dereferenceable(32) %9, ptr noundef nonnull align 8 dereferenceable(28) %14)
  %15 = load ptr, ptr %7, align 8
  call void @_ZN4llvm17IDFCalculatorBaseINS_17MachineBasicBlockELb0EE17setDefiningBlocksERKNS_15SmallPtrSetImplIPS1_EE(ptr noundef nonnull align 8 dereferenceable(32) %9, ptr noundef nonnull align 8 dereferenceable(28) %15)
  %16 = load ptr, ptr %8, align 8
  call void @_ZN4llvm17IDFCalculatorBaseINS_17MachineBasicBlockELb0EE9calculateERNS_15SmallVectorImplIPS1_EE(ptr noundef nonnull align 8 dereferenceable(32) %9, ptr noundef nonnull align 8 dereferenceable(16) %16)
  ret void
}