; Function Attrs: mustprogress nounwind uwtable
define dso_local void @_ZN15LiveDebugValues16InstrRefBasedLDV17BlockPHIPlacementERKN4llvm15SmallPtrSetImplIPNS1_17MachineBasicBlockEEES7_RNS1_15SmallVectorImplIS4_EE(ptr nocapture noundef nonnull readonly align 8 dereferenceable(2312) %0, ptr noundef nonnull align 8 dereferenceable(28) %1, ptr noundef nonnull align 8 dereferenceable(28) %2, ptr noundef nonnull align 8 dereferenceable(16) %3) local_unnamed_addr #0 align 2 {
  %5 = alloca %"class.llvm::IDFCalculatorBase", align 8
  %6 = getelementptr inbounds nuw i8, ptr %0, i64 8
  %7 = load ptr, ptr %6, align 8
  tail call void @_ZNK4llvm20MachineDominatorTree23applySplitCriticalEdgesEv(ptr noundef nonnull align 8 dereferenceable(1200) %7) #21
  store ptr %7, ptr %5, align 8
  %8 = getelementptr inbounds nuw i8, ptr %5, i64 9
  %9 = getelementptr inbounds nuw i8, ptr %5, i64 16
  store ptr %1, ptr %9, align 8
  store i8 1, ptr %8, align 1
  %10 = getelementptr inbounds nuw i8, ptr %5, i64 24
  store ptr %2, ptr %10, align 8
  call void @_ZN4llvm17IDFCalculatorBaseINS_17MachineBasicBlockELb0EE9calculateERNS_15SmallVectorImplIPS1_EE(ptr noundef nonnull align 8 dereferenceable(32) %5, ptr noundef nonnull align 8 dereferenceable(16) %3)
  ret void
}